; Function Attrs: mustprogress uwtable
define dso_local noundef ptr @_ZNK4absl18debugging_internal11ElfMemImage9GetDynstrEj(ptr noundef nonnull readonly align 8 captures(none) dereferenceable(72) %0, i32 noundef %1) local_unnamed_addr #0 align 2 {
  %3 = zext i32 %1 to i64
  %4 = getelementptr inbounds nuw i8, ptr %0, i64 48
  %5 = load i64, ptr %4, align 8, !tbaa !33
  %.not = icmp ugt i64 %5, %3
  br i1 %.not, label %7, label %6, !prof !39

6:                                                ; preds = %2
  tail call void (i32, ptr, i32, ptr, ...) @_ZN4absl16raw_log_internal6RawLogENS_11LogSeverityEPKciS3_z(i32 noundef 3, ptr noundef nonnull getelementptr inbounds nuw (i8, ptr @.str, i64 123), i32 noundef 111, ptr noundef nonnull @.str.1, ptr noundef nonnull @.str.7, ptr noundef nonnull @.str.8)
  unreachable

7:                                                ; preds = %2
  %8 = getelementptr inbounds nuw i8, ptr %0, i64 32
  %9 = load ptr, ptr %8, align 8, !tbaa !29
  %10 = getelementptr inbounds nuw i8, ptr %9, i64 %3
  ret ptr %10
}